; Function Attrs: mustprogress nounwind uwtable
define dso_local ptr @_ZN5clang4ento8RangeSet7Factory3addES1_S1_(ptr noundef nonnull align 8 dereferenceable(120) %0, ptr %1, ptr %2) local_unnamed_addr #1 align 2 {
  %4 = alloca %"struct.clang::ento::RangeSet::ContainerType", align 8
  %5 = getelementptr inbounds i8, ptr %4, i64 16
  call void @_ZN4llvm15SmallVectorBaseIjEC2EPvm(ptr noundef nonnull align 8 dereferenceable(16) %4, ptr noundef nonnull %5, i64 noundef 4) #22
  %6 = getelementptr inbounds i8, ptr %4, i64 80
  store ptr null, ptr %6, align 8
  %7 = call noundef i64 @_ZNK4llvm15SmallVectorBaseIjE4sizeEv(ptr noundef nonnull align 8 dereferenceable(16) %1) #22
  %8 = call noundef i64 @_ZNK4llvm15SmallVectorBaseIjE4sizeEv(ptr noundef nonnull align 8 dereferenceable(16) %2) #22
  %9 = add i64 %8, %7
  %10 = call noundef i64 @_ZNK4llvm15SmallVectorBaseIjE8capacityEv(ptr noundef nonnull align 8 dereferenceable(16) %4) #22
  %11 = icmp ult i64 %10, %9
  br i1 %11, label %12, label %_ZN4llvm15SmallVectorImplIN5clang4ento5RangeEE7reserveEm.exit

12:                                               ; preds = %3
  call void @_ZN4llvm15SmallVectorBaseIjE8grow_podEPvmm(ptr noundef nonnull align 8 dereferenceable(16) %4, ptr noundef nonnull %5, i64 noundef %9, i64 noundef 16) #22
  br label %_ZN4llvm15SmallVectorImplIN5clang4ento5RangeEE7reserveEm.exit

_ZN4llvm15SmallVectorImplIN5clang4ento5RangeEE7reserveEm.exit: ; preds = %3, %12
  %13 = load ptr, ptr %1, align 8
  %14 = call noundef i64 @_ZNK4llvm15SmallVectorBaseIjE4sizeEv(ptr noundef nonnull align 8 dereferenceable(16) %1) #22
  %15 = getelementptr inbounds %"class.clang::ento::Range", ptr %13, i64 %14
  %16 = load ptr, ptr %2, align 8
  %17 = call noundef i64 @_ZNK4llvm15SmallVectorBaseIjE4sizeEv(ptr noundef nonnull align 8 dereferenceable(16) %2) #22
  %18 = getelementptr inbounds %"class.clang::ento::Range", ptr %16, i64 %17
  %19 = call ptr @_ZSt7__mergeIPKN5clang4ento5RangeES4_St20back_insert_iteratorINS1_8RangeSet13ContainerTypeEEN9__gnu_cxx5__ops15_Iter_less_iterEET1_T_SD_T0_SE_SC_T2_(ptr noundef %13, ptr noundef %15, ptr noundef %16, ptr noundef %18, ptr nonnull %4)
  %20 = call ptr @_ZN5clang4ento8RangeSet7Factory14makePersistentEONS1_13ContainerTypeE(ptr noundef nonnull align 8 dereferenceable(120) %0, ptr noundef nonnull align 8 dereferenceable(88) %4)
  %21 = call noundef i64 @_ZNK4llvm15SmallVectorBaseIjE4sizeEv(ptr noundef nonnull align 8 dereferenceable(16) %4) #22
  %22 = load ptr, ptr %4, align 8
  %23 = icmp eq ptr %22, %5
  br i1 %23, label %_ZN5clang4ento8RangeSet13ContainerTypeD2Ev.exit, label %24

24:                                               ; preds = %_ZN4llvm15SmallVectorImplIN5clang4ento5RangeEE7reserveEm.exit
  call void @free(ptr noundef %22) #22
  br label %_ZN5clang4ento8RangeSet13ContainerTypeD2Ev.exit

_ZN5clang4ento8RangeSet13ContainerTypeD2Ev.exit:  ; preds = %_ZN4llvm15SmallVectorImplIN5clang4ento5RangeEE7reserveEm.exit, %24
  ret ptr %20
}